target datalayout = "e-m:e-p270:32:32-p271:32:32-p272:64:64-i64:64-i128:128-f80:128-n8:16:32:64-S128"
target triple = "x86_64-pc-linux-gnu"

%"struct.(anonymous namespace)::DumpVisitor" = type <{ i32, i8, [3 x i8] }>
%"class.std::__1::reference_wrapper" = type { ptr }
%"struct.(anonymous namespace)::DumpVisitor::CtorArgPrinter" = type { ptr }
%"class.(anonymous namespace)::itanium_demangle::Node.base" = type <{ ptr, i8, i16 }>
%"class.std::initializer_list" = type { ptr, i64 }
%"class.(anonymous namespace)::itanium_demangle::QualType" = type { %"class.(anonymous namespace)::itanium_demangle::Node.base", i32, ptr }

@.str.3 = private unnamed_addr constant [2 x i8] c"\0A\00", align 1
@.str.4 = private unnamed_addr constant [2 x i8] c" \00", align 1
@stderr = external global ptr, align 8
@.str.5 = private unnamed_addr constant [3 x i8] c"%s\00", align 1
@.str.8 = private unnamed_addr constant [4 x i8] c"%s(\00", align 1
@.str.9 = private unnamed_addr constant [2 x i8] c")\00", align 1
@.str.13 = private unnamed_addr constant [7 x i8] c"<null>\00", align 1
@.str.19 = private unnamed_addr constant [9 x i8] c"QualType\00", align 1

; Function Attrs: mustprogress nounwind uwtable
define internal void @_ZNSt3__117reference_wrapperIN12_GLOBAL__N_111DumpVisitorEEC2B8ne210000IRS2_vTnNS_9enable_ifIXntsr17__is_same_uncvrefIT_S3_EE5valueEiE4typeELi0EEEOS7_(ptr noundef nonnull align 8 dereferenceable(8) %0, ptr noundef nonnull align 4 dereferenceable(5) %1) unnamed_addr #6 align 2 {
  %3 = alloca ptr, align 8
  %4 = alloca ptr, align 8
  %5 = alloca ptr, align 8
  store ptr %0, ptr %3, align 8, !tbaa !238
  store ptr %1, ptr %4, align 8, !tbaa !9
  %6 = load ptr, ptr %3, align 8
  call void @llvm.lifetime.start.p0(i64 8, ptr %5) #19
  %7 = load ptr, ptr %4, align 8, !tbaa !9
  store ptr %7, ptr %5, align 8, !tbaa !9
  %8 = load ptr, ptr %5, align 8, !tbaa !9
  %9 = getelementptr inbounds nuw %"class.std::__1::reference_wrapper", ptr %6, i32 0, i32 0
  store ptr %8, ptr %9, align 8, !tbaa !240
  call void @llvm.lifetime.end.p0(i64 8, ptr %5) #19
  ret void
}

; Function Attrs: inlinehint mustprogress nounwind uwtable
define internal ptr @_ZNSt3__13refB8ne210000IN12_GLOBAL__N_111DumpVisitorEEENS_17reference_wrapperIT_EERS4_(ptr noundef nonnull align 4 dereferenceable(5) %0) #2 {
  %2 = alloca %"class.std::__1::reference_wrapper", align 8
  %3 = alloca ptr, align 8
  store ptr %0, ptr %3, align 8, !tbaa !9
  %4 = load ptr, ptr %3, align 8, !tbaa !9
  call void @_ZNSt3__117reference_wrapperIN12_GLOBAL__N_111DumpVisitorEEC2B8ne210000IRS2_vTnNS_9enable_ifIXntsr17__is_same_uncvrefIT_S3_EE5valueEiE4typeELi0EEEOS7_(ptr noundef nonnull align 8 dereferenceable(8) %2, ptr noundef nonnull align 4 dereferenceable(5) %4) #19
  %5 = getelementptr inbounds nuw %"class.std::__1::reference_wrapper", ptr %2, i32 0, i32 0
  %6 = load ptr, ptr %5, align 8
  ret ptr %6
}

; Function Attrs: mustprogress uwtable
define internal void @_ZN12_GLOBAL__N_111DumpVisitor5printEPKNS_16itanium_demangle4NodeE(ptr noundef nonnull align 4 dereferenceable(5) %0, ptr noundef %1) #3 align 2 {
  %3 = alloca ptr, align 8
  %4 = alloca ptr, align 8
  %5 = alloca %"class.std::__1::reference_wrapper", align 8
  store ptr %0, ptr %3, align 8, !tbaa !9
  store ptr %1, ptr %4, align 8, !tbaa !4
  %6 = load ptr, ptr %3, align 8
  %7 = load ptr, ptr %4, align 8, !tbaa !4
  %8 = icmp ne ptr %7, null
  br i1 %8, label %9, label %15

9:                                                ; preds = %2
  %10 = load ptr, ptr %4, align 8, !tbaa !4
  %11 = call ptr @_ZNSt3__13refB8ne210000IN12_GLOBAL__N_111DumpVisitorEEENS_17reference_wrapperIT_EERS4_(ptr noundef nonnull align 4 dereferenceable(5) %6) #19
  %12 = getelementptr inbounds nuw %"class.std::__1::reference_wrapper", ptr %5, i32 0, i32 0
  store ptr %11, ptr %12, align 8
  %13 = getelementptr inbounds nuw %"class.std::__1::reference_wrapper", ptr %5, i32 0, i32 0
  %14 = load ptr, ptr %13, align 8
  call void @_ZNK12_GLOBAL__N_116itanium_demangle4Node5visitINSt3__117reference_wrapperINS_11DumpVisitorEEEEEvT_(ptr noundef nonnull align 8 dereferenceable(11) %10, ptr %14)
  br label %16

15:                                               ; preds = %2
  call void @_ZN12_GLOBAL__N_111DumpVisitor8printStrEPKc(ptr noundef nonnull align 4 dereferenceable(5) %6, ptr noundef @.str.13)
  br label %16

16:                                               ; preds = %15, %9
  ret void
}

; Function Attrs: mustprogress nounwind uwtable
define internal void @_ZN12_GLOBAL__N_111DumpVisitor8printStrEPKc(ptr noundef nonnull align 4 dereferenceable(5) %0, ptr noundef %1) #6 align 2 {
  %3 = alloca ptr, align 8
  %4 = alloca ptr, align 8
  store ptr %0, ptr %3, align 8, !tbaa !9
  store ptr %1, ptr %4, align 8, !tbaa !194
  %5 = load ptr, ptr @stderr, align 8, !tbaa !242
  %6 = load ptr, ptr %4, align 8, !tbaa !194
  %7 = call i32 (ptr, ptr, ...) @fprintf(ptr noundef %5, ptr noundef @.str.5, ptr noundef %6) #19
  ret void
}

; Function Attrs: mustprogress nounwind uwtable
define linkonce_odr hidden noundef ptr @_ZNKSt16initializer_listIbE3endB8ne210000Ev(ptr noundef nonnull align 8 dereferenceable(16) %0) #6 comdat align 2 {
  %2 = alloca ptr, align 8
  store ptr %0, ptr %2, align 8, !tbaa !463
  %3 = load ptr, ptr %2, align 8
  %4 = getelementptr inbounds nuw %"class.std::initializer_list", ptr %3, i32 0, i32 0
  %5 = load ptr, ptr %4, align 8, !tbaa !459
  %6 = getelementptr inbounds nuw %"class.std::initializer_list", ptr %3, i32 0, i32 1
  %7 = load i64, ptr %6, align 8, !tbaa !462
  %8 = getelementptr inbounds nuw i8, ptr %5, i64 %7
  ret ptr %8
}

; Function Attrs: mustprogress nounwind uwtable
define linkonce_odr hidden noundef ptr @_ZNKSt16initializer_listIbE5beginB8ne210000Ev(ptr noundef nonnull align 8 dereferenceable(16) %0) #6 comdat align 2 {
  %2 = alloca ptr, align 8
  store ptr %0, ptr %2, align 8, !tbaa !463
  %3 = load ptr, ptr %2, align 8
  %4 = getelementptr inbounds nuw %"class.std::initializer_list", ptr %3, i32 0, i32 0
  %5 = load ptr, ptr %4, align 8, !tbaa !459
  ret ptr %5
}

; Function Attrs: mustprogress nounwind uwtable
define internal noundef zeroext i1 @_ZN12_GLOBAL__N_111DumpVisitor12wantsNewlineEz(...) #6 align 2 {
  ret i1 false
}

; Function Attrs: mustprogress nounwind uwtable
define internal noundef zeroext i1 @_ZN12_GLOBAL__N_111DumpVisitor12wantsNewlineINS_16itanium_demangle4NodeEEEbPKT_(ptr noundef %0) #6 align 2 {
  %2 = alloca ptr, align 8
  store ptr %0, ptr %2, align 8, !tbaa !4
  ret i1 true
}

; Function Attrs: mustprogress uwtable
define internal void @_ZN12_GLOBAL__N_111DumpVisitor23printWithPendingNewlineIPKNS_16itanium_demangle4NodeEEEvT_(ptr noundef nonnull align 4 dereferenceable(5) %0, ptr noundef %1) #3 align 2 {
  %3 = alloca ptr, align 8
  %4 = alloca ptr, align 8
  store ptr %0, ptr %3, align 8, !tbaa !9
  store ptr %1, ptr %4, align 8, !tbaa !4
  %5 = load ptr, ptr %3, align 8
  %6 = load ptr, ptr %4, align 8, !tbaa !4
  call void @_ZN12_GLOBAL__N_111DumpVisitor5printEPKNS_16itanium_demangle4NodeE(ptr noundef nonnull align 4 dereferenceable(5) %5, ptr noundef %6)
  %7 = load ptr, ptr %4, align 8, !tbaa !4
  %8 = call noundef zeroext i1 @_ZN12_GLOBAL__N_111DumpVisitor12wantsNewlineINS_16itanium_demangle4NodeEEEbPKT_(ptr noundef %7)
  br i1 %8, label %9, label %11

9:                                                ; preds = %2
  %10 = getelementptr inbounds nuw %"struct.(anonymous namespace)::DumpVisitor", ptr %5, i32 0, i32 1
  store i8 1, ptr %10, align 4, !tbaa !15
  br label %11

11:                                               ; preds = %9, %2
  ret void
}

; Function Attrs: mustprogress uwtable
define internal void @_ZN12_GLOBAL__N_111DumpVisitor7newLineEv(ptr noundef nonnull align 4 dereferenceable(5) %0) #3 align 2 {
  %2 = alloca ptr, align 8
  %3 = alloca i32, align 4
  store ptr %0, ptr %2, align 8, !tbaa !9
  %4 = load ptr, ptr %2, align 8
  call void @_ZN12_GLOBAL__N_111DumpVisitor8printStrEPKc(ptr noundef nonnull align 4 dereferenceable(5) %4, ptr noundef @.str.3)
  call void @llvm.lifetime.start.p0(i64 4, ptr %3) #19
  store i32 0, ptr %3, align 4, !tbaa !196
  br label %5

5:                                                ; preds = %12, %1
  %6 = load i32, ptr %3, align 4, !tbaa !196
  %7 = getelementptr inbounds nuw %"struct.(anonymous namespace)::DumpVisitor", ptr %4, i32 0, i32 0
  %8 = load i32, ptr %7, align 4, !tbaa !11
  %9 = icmp ne i32 %6, %8
  br i1 %9, label %11, label %10

10:                                               ; preds = %5
  call void @llvm.lifetime.end.p0(i64 4, ptr %3) #19
  br label %15

11:                                               ; preds = %5
  call void @_ZN12_GLOBAL__N_111DumpVisitor8printStrEPKc(ptr noundef nonnull align 4 dereferenceable(5) %4, ptr noundef @.str.4)
  br label %12

12:                                               ; preds = %11
  %13 = load i32, ptr %3, align 4, !tbaa !196
  %14 = add i32 %13, 1
  store i32 %14, ptr %3, align 4, !tbaa !196
  br label %5, !llvm.loop !197

15:                                               ; preds = %10
  %16 = getelementptr inbounds nuw %"struct.(anonymous namespace)::DumpVisitor", ptr %4, i32 0, i32 1
  store i8 0, ptr %16, align 4, !tbaa !15
  ret void
}

; Function Attrs: mustprogress nounwind uwtable
define internal noundef zeroext i1 @_ZN12_GLOBAL__N_111DumpVisitor14anyWantNewlineIJPKNS_16itanium_demangle4NodeENS2_10QualifiersEEEEbDpT_(ptr noundef %0, i32 noundef %1) #6 align 2 {
  %3 = alloca i1, align 1
  %4 = alloca ptr, align 8
  %5 = alloca i32, align 4
  %6 = alloca ptr, align 8
  %7 = alloca %"class.std::initializer_list", align 8
  %8 = alloca [2 x i8], align 1
  %9 = alloca ptr, align 8
  %10 = alloca ptr, align 8
  %11 = alloca i32, align 4
  %12 = alloca i8, align 1
  store ptr %0, ptr %4, align 8, !tbaa !4
  store i32 %1, ptr %5, align 4, !tbaa !234
  call void @llvm.lifetime.start.p0(i64 8, ptr %6) #19
  call void @llvm.lifetime.start.p0(i64 16, ptr %7) #19
  call void @llvm.lifetime.start.p0(i64 2, ptr %8) #19
  %13 = load ptr, ptr %4, align 8, !tbaa !4
  %14 = call noundef zeroext i1 @_ZN12_GLOBAL__N_111DumpVisitor12wantsNewlineINS_16itanium_demangle4NodeEEEbPKT_(ptr noundef %13)
  %15 = zext i1 %14 to i8
  store i8 %15, ptr %8, align 1, !tbaa !209
  %16 = getelementptr inbounds i8, ptr %8, i64 1
  %17 = load i32, ptr %5, align 4, !tbaa !234
  %18 = call noundef zeroext i1 (...) @_ZN12_GLOBAL__N_111DumpVisitor12wantsNewlineEz(i32 noundef %17)
  %19 = zext i1 %18 to i8
  store i8 %19, ptr %16, align 1, !tbaa !209
  %20 = getelementptr inbounds nuw %"class.std::initializer_list", ptr %7, i32 0, i32 0
  store ptr %8, ptr %20, align 8, !tbaa !459
  %21 = getelementptr inbounds nuw %"class.std::initializer_list", ptr %7, i32 0, i32 1
  store i64 2, ptr %21, align 8, !tbaa !462
  store ptr %7, ptr %6, align 8, !tbaa !463
  call void @llvm.lifetime.start.p0(i64 8, ptr %9) #19
  %22 = load ptr, ptr %6, align 8, !tbaa !463
  %23 = call noundef ptr @_ZNKSt16initializer_listIbE5beginB8ne210000Ev(ptr noundef nonnull align 8 dereferenceable(16) %22) #19
  store ptr %23, ptr %9, align 8, !tbaa !465
  call void @llvm.lifetime.start.p0(i64 8, ptr %10) #19
  %24 = load ptr, ptr %6, align 8, !tbaa !463
  %25 = call noundef ptr @_ZNKSt16initializer_listIbE3endB8ne210000Ev(ptr noundef nonnull align 8 dereferenceable(16) %24) #19
  store ptr %25, ptr %10, align 8, !tbaa !465
  br label %26

26:                                               ; preds = %43, %2
  %27 = load ptr, ptr %9, align 8, !tbaa !465
  %28 = load ptr, ptr %10, align 8, !tbaa !465
  %29 = icmp ne ptr %27, %28
  br i1 %29, label %31, label %30

30:                                               ; preds = %26
  store i32 2, ptr %11, align 4
  br label %46

31:                                               ; preds = %26
  call void @llvm.lifetime.start.p0(i64 1, ptr %12) #19
  %32 = load ptr, ptr %9, align 8, !tbaa !465
  %33 = load i8, ptr %32, align 1, !tbaa !209, !range !210, !noundef !211
  %34 = trunc i8 %33 to i1
  %35 = zext i1 %34 to i8
  store i8 %35, ptr %12, align 1, !tbaa !209
  %36 = load i8, ptr %12, align 1, !tbaa !209, !range !210, !noundef !211
  %37 = trunc i8 %36 to i1
  br i1 %37, label %38, label %39

38:                                               ; preds = %31
  store i1 true, ptr %3, align 1
  store i32 1, ptr %11, align 4
  br label %40

39:                                               ; preds = %31
  store i32 0, ptr %11, align 4
  br label %40

40:                                               ; preds = %39, %38
  call void @llvm.lifetime.end.p0(i64 1, ptr %12) #19
  %41 = load i32, ptr %11, align 4
  switch i32 %41, label %46 [
    i32 0, label %42
  ]

42:                                               ; preds = %40
  br label %43

43:                                               ; preds = %42
  %44 = load ptr, ptr %9, align 8, !tbaa !465
  %45 = getelementptr inbounds nuw i8, ptr %44, i32 1
  store ptr %45, ptr %9, align 8, !tbaa !465
  br label %26

46:                                               ; preds = %40, %30
  call void @llvm.lifetime.end.p0(i64 8, ptr %10) #19
  call void @llvm.lifetime.end.p0(i64 8, ptr %9) #19
  call void @llvm.lifetime.end.p0(i64 2, ptr %8) #19
  call void @llvm.lifetime.end.p0(i64 16, ptr %7) #19
  call void @llvm.lifetime.end.p0(i64 8, ptr %6) #19
  %47 = load i32, ptr %11, align 4
  switch i32 %47, label %51 [
    i32 2, label %48
    i32 1, label %49
  ]

48:                                               ; preds = %46
  store i1 false, ptr %3, align 1
  br label %49

49:                                               ; preds = %48, %46
  %50 = load i1, ptr %3, align 1
  ret i1 %50

51:                                               ; preds = %46
  unreachable
}

; Function Attrs: mustprogress uwtable
define internal void @_ZN12_GLOBAL__N_111DumpVisitor14CtorArgPrinterclIPKNS_16itanium_demangle4NodeEJNS3_10QualifiersEEEEvT_DpT0_(ptr noundef nonnull align 8 dereferenceable(8) %0, ptr noundef %1, i32 noundef %2) #3 align 2 {
  %4 = alloca ptr, align 8
  %5 = alloca ptr, align 8
  %6 = alloca i32, align 4
  %7 = alloca [2 x i32], align 4
  store ptr %0, ptr %4, align 8, !tbaa !455
  store ptr %1, ptr %5, align 8, !tbaa !4
  store i32 %2, ptr %6, align 4, !tbaa !234
  %8 = load ptr, ptr %4, align 8
  %9 = load ptr, ptr %5, align 8, !tbaa !4
  %10 = load i32, ptr %6, align 4, !tbaa !234
  %11 = call noundef zeroext i1 @_ZN12_GLOBAL__N_111DumpVisitor14anyWantNewlineIJPKNS_16itanium_demangle4NodeENS2_10QualifiersEEEEbDpT_(ptr noundef %9, i32 noundef %10)
  br i1 %11, label %12, label %15

12:                                               ; preds = %3
  %13 = getelementptr inbounds nuw %"struct.(anonymous namespace)::DumpVisitor::CtorArgPrinter", ptr %8, i32 0, i32 0
  %14 = load ptr, ptr %13, align 8, !tbaa !457
  call void @_ZN12_GLOBAL__N_111DumpVisitor7newLineEv(ptr noundef nonnull align 4 dereferenceable(5) %14)
  br label %15

15:                                               ; preds = %12, %3
  %16 = getelementptr inbounds nuw %"struct.(anonymous namespace)::DumpVisitor::CtorArgPrinter", ptr %8, i32 0, i32 0
  %17 = load ptr, ptr %16, align 8, !tbaa !457
  %18 = load ptr, ptr %5, align 8, !tbaa !4
  call void @_ZN12_GLOBAL__N_111DumpVisitor23printWithPendingNewlineIPKNS_16itanium_demangle4NodeEEEvT_(ptr noundef nonnull align 4 dereferenceable(5) %17, ptr noundef %18)
  call void @llvm.lifetime.start.p0(i64 8, ptr %7) #19
  %19 = getelementptr inbounds nuw %"struct.(anonymous namespace)::DumpVisitor::CtorArgPrinter", ptr %8, i32 0, i32 0
  %20 = load ptr, ptr %19, align 8, !tbaa !457
  %21 = load i32, ptr %6, align 4, !tbaa !234
  call void @_ZN12_GLOBAL__N_111DumpVisitor14printWithCommaINS_16itanium_demangle10QualifiersEEEvT_(ptr noundef nonnull align 4 dereferenceable(5) %20, i32 noundef %21)
  store i32 0, ptr %7, align 4, !tbaa !196
  %22 = getelementptr inbounds i32, ptr %7, i64 1
  store i32 0, ptr %22, align 4, !tbaa !196
  call void @llvm.lifetime.end.p0(i64 8, ptr %7) #19
  ret void
}

; Function Attrs: mustprogress uwtable
define internal void @_ZNK12_GLOBAL__N_116itanium_demangle8QualType5matchINS_11DumpVisitor14CtorArgPrinterEEEvT_(ptr noundef nonnull align 8 dereferenceable(24) %0, ptr %1) #3 align 2 {
  %3 = alloca %"struct.(anonymous namespace)::DumpVisitor::CtorArgPrinter", align 8
  %4 = alloca ptr, align 8
  %5 = getelementptr inbounds nuw %"struct.(anonymous namespace)::DumpVisitor::CtorArgPrinter", ptr %3, i32 0, i32 0
  store ptr %1, ptr %5, align 8
  store ptr %0, ptr %4, align 8, !tbaa !24
  %6 = load ptr, ptr %4, align 8
  %7 = getelementptr inbounds nuw %"class.(anonymous namespace)::itanium_demangle::QualType", ptr %6, i32 0, i32 2
  %8 = load ptr, ptr %7, align 8, !tbaa !482
  %9 = getelementptr inbounds nuw %"class.(anonymous namespace)::itanium_demangle::QualType", ptr %6, i32 0, i32 1
  %10 = load i32, ptr %9, align 4, !tbaa !484
  call void @_ZN12_GLOBAL__N_111DumpVisitor14CtorArgPrinterclIPKNS_16itanium_demangle4NodeEJNS3_10QualifiersEEEEvT_DpT0_(ptr noundef nonnull align 8 dereferenceable(8) %3, ptr noundef %8, i32 noundef %10)
  ret void
}

; Function Attrs: mustprogress nounwind uwtable
define internal noundef ptr @_ZN12_GLOBAL__N_116itanium_demangle8NodeKindINS0_8QualTypeEE4nameEv() #6 align 2 {
  ret ptr @.str.19
}

; Function Attrs: mustprogress uwtable
define internal void @_ZN12_GLOBAL__N_111DumpVisitorclINS_16itanium_demangle8QualTypeEEEvPKT_(ptr noundef nonnull align 4 dereferenceable(5) %0, ptr noundef %1) #3 align 2 {
  %3 = alloca ptr, align 8
  %4 = alloca ptr, align 8
  %5 = alloca %"struct.(anonymous namespace)::DumpVisitor::CtorArgPrinter", align 8
  store ptr %0, ptr %3, align 8, !tbaa !9
  store ptr %1, ptr %4, align 8, !tbaa !24
  %6 = load ptr, ptr %3, align 8
  %7 = getelementptr inbounds nuw %"struct.(anonymous namespace)::DumpVisitor", ptr %6, i32 0, i32 0
  %8 = load i32, ptr %7, align 4, !tbaa !11
  %9 = add i32 %8, 2
  store i32 %9, ptr %7, align 4, !tbaa !11
  %10 = load ptr, ptr @stderr, align 8, !tbaa !242
  %11 = call noundef ptr @_ZN12_GLOBAL__N_116itanium_demangle8NodeKindINS0_8QualTypeEE4nameEv()
  %12 = call i32 (ptr, ptr, ...) @fprintf(ptr noundef %10, ptr noundef @.str.8, ptr noundef %11) #19
  %13 = load ptr, ptr %4, align 8, !tbaa !24
  %14 = getelementptr inbounds nuw %"struct.(anonymous namespace)::DumpVisitor::CtorArgPrinter", ptr %5, i32 0, i32 0
  store ptr %6, ptr %14, align 8, !tbaa !9
  %15 = getelementptr inbounds nuw %"struct.(anonymous namespace)::DumpVisitor::CtorArgPrinter", ptr %5, i32 0, i32 0
  %16 = load ptr, ptr %15, align 8
  call void @_ZNK12_GLOBAL__N_116itanium_demangle8QualType5matchINS_11DumpVisitor14CtorArgPrinterEEEvT_(ptr noundef nonnull align 8 dereferenceable(24) %13, ptr %16)
  %17 = load ptr, ptr @stderr, align 8, !tbaa !242
  %18 = call i32 (ptr, ptr, ...) @fprintf(ptr noundef %17, ptr noundef @.str.9) #19
  %19 = getelementptr inbounds nuw %"struct.(anonymous namespace)::DumpVisitor", ptr %6, i32 0, i32 0
  %20 = load i32, ptr %19, align 4, !tbaa !11
  %21 = sub i32 %20, 2
  store i32 %21, ptr %19, align 4, !tbaa !11
  ret void
}

; Function Attrs: inlinehint mustprogress uwtable
define internal void @_ZNSt3__18__invokeB8ne210000IRN12_GLOBAL__N_111DumpVisitorEJPKNS1_16itanium_demangle8QualTypeEEEEDTclclsr3stdE7declvalIT_EEspclsr3stdE7declvalIT0_EEEEOS8_DpOS9_(ptr noundef nonnull align 4 dereferenceable(5) %0, ptr noundef nonnull align 8 dereferenceable(8) %1) #5 {
  %3 = alloca ptr, align 8
  %4 = alloca ptr, align 8
  store ptr %0, ptr %3, align 8, !tbaa !9
  store ptr %1, ptr %4, align 8, !tbaa !284
  %5 = load ptr, ptr %3, align 8, !tbaa !9
  %6 = load ptr, ptr %4, align 8, !tbaa !284
  %7 = load ptr, ptr %6, align 8, !tbaa !24
  call void @_ZN12_GLOBAL__N_111DumpVisitorclINS_16itanium_demangle8QualTypeEEEvPKT_(ptr noundef nonnull align 4 dereferenceable(5) %5, ptr noundef %7)
  ret void
}