; Function Attrs: cold inlinehint mustprogress uwtable
define internal fastcc void @_ZNSt3__18__invokeB8ne210000IRN12_GLOBAL__N_111DumpVisitorEJPKNS1_16itanium_demangle8QualTypeEEEEDTclclsr3stdE7declvalIT_EEspclsr3stdE7declvalIT0_EEEEOS8_DpOS9_(ptr noundef nonnull align 4 captures(none) dereferenceable(5) %0, ptr noundef nonnull readonly align 8 captures(none) dereferenceable(8) %1) unnamed_addr #16 {
  %3 = alloca [2 x i8], align 1
  %4 = load ptr, ptr %1, align 8, !tbaa !24
  %5 = load i32, ptr %0, align 4, !tbaa !4
  %6 = add i32 %5, 2
  store i32 %6, ptr %0, align 4, !tbaa !4
  %7 = load ptr, ptr @stderr, align 8, !tbaa !11
  %8 = tail call i32 (ptr, ptr, ...) @fprintf(ptr noundef %7, ptr noundef nonnull @.str.8, ptr noundef nonnull @.str.19) #36
  %9 = getelementptr inbounds nuw i8, ptr %4, i64 16
  %10 = load ptr, ptr %9, align 8, !tbaa !237
  %11 = getelementptr inbounds nuw i8, ptr %4, i64 12
  %12 = load i32, ptr %11, align 4, !tbaa !239
  call void @llvm.lifetime.start.p0(i64 2, ptr nonnull %3) #29
  store i8 1, ptr %3, align 1, !tbaa !231
  %13 = getelementptr inbounds nuw i8, ptr %3, i64 1
  store i8 0, ptr %13, align 1, !tbaa !231
  br label %14

14:                                               ; preds = %14, %2
  %.013.idx2.i = phi i64 [ 0, %2 ], [ %.013.add.i, %14 ]
  %.013.ptr.i = getelementptr inbounds nuw i8, ptr %3, i64 %.013.idx2.i
  %15 = load i8, ptr %.013.ptr.i, align 1, !tbaa !231, !range !232, !noundef !233
  %16 = trunc nuw i8 %15 to i1
  %.013.add.i = add nuw nsw i64 %.013.idx2.i, 1
  %.not.not.i = icmp eq i64 %.013.add.i, 2
  %or.cond.i = select i1 %16, i1 true, i1 %.not.not.i
  br i1 %or.cond.i, label %_ZN12_GLOBAL__N_111DumpVisitor14anyWantNewlineIJPKNS_16itanium_demangle4NodeENS2_10QualifiersEEEEbDpT_.exit, label %14

_ZN12_GLOBAL__N_111DumpVisitor14anyWantNewlineIJPKNS_16itanium_demangle4NodeENS2_10QualifiersEEEEbDpT_.exit: ; preds = %14
  call void @llvm.lifetime.end.p0(i64 2, ptr nonnull %3) #29
  br i1 %16, label %17, label %_ZNK12_GLOBAL__N_116itanium_demangle8QualType5matchINS_11DumpVisitor14CtorArgPrinterEEEvT_.exit

17:                                               ; preds = %_ZN12_GLOBAL__N_111DumpVisitor14anyWantNewlineIJPKNS_16itanium_demangle4NodeENS2_10QualifiersEEEEbDpT_.exit
  %18 = load ptr, ptr @stderr, align 8, !tbaa !11
  %fputc.i2 = tail call i32 @fputc(i32 10, ptr %18)
  %19 = load i32, ptr %0, align 4, !tbaa !4
  %.not4.i = icmp eq i32 %19, 0
  br i1 %.not4.i, label %_ZN12_GLOBAL__N_111DumpVisitor7newLineEv.exit, label %.lr.ph.i

.lr.ph.i:                                         ; preds = %17, %.lr.ph.i
  %.05.i = phi i32 [ %21, %.lr.ph.i ], [ 0, %17 ]
  %20 = load ptr, ptr @stderr, align 8, !tbaa !11
  %fputc3.i = tail call i32 @fputc(i32 32, ptr %20)
  %21 = add i32 %.05.i, 1
  %22 = load i32, ptr %0, align 4, !tbaa !4
  %.not.i = icmp eq i32 %21, %22
  br i1 %.not.i, label %_ZN12_GLOBAL__N_111DumpVisitor7newLineEv.exit, label %.lr.ph.i, !llvm.loop !14

_ZN12_GLOBAL__N_111DumpVisitor7newLineEv.exit:    ; preds = %.lr.ph.i, %17
  %23 = getelementptr inbounds nuw i8, ptr %0, i64 4
  store i8 0, ptr %23, align 4, !tbaa !10
  br label %_ZNK12_GLOBAL__N_116itanium_demangle8QualType5matchINS_11DumpVisitor14CtorArgPrinterEEEvT_.exit

_ZNK12_GLOBAL__N_116itanium_demangle8QualType5matchINS_11DumpVisitor14CtorArgPrinterEEEvT_.exit: ; preds = %_ZN12_GLOBAL__N_111DumpVisitor14anyWantNewlineIJPKNS_16itanium_demangle4NodeENS2_10QualifiersEEEEbDpT_.exit, %_ZN12_GLOBAL__N_111DumpVisitor7newLineEv.exit
  %.not.i.i = icmp eq ptr %10, null
  br i1 %.not.i.i, label %25, label %24

24:                                               ; preds = %_ZNK12_GLOBAL__N_116itanium_demangle8QualType5matchINS_11DumpVisitor14CtorArgPrinterEEEvT_.exit
  tail call fastcc void @_ZNK12_GLOBAL__N_116itanium_demangle4Node5visitINSt3__117reference_wrapperINS_11DumpVisitorEEEEEvT_(ptr noundef nonnull align 8 dereferenceable(11) %10, ptr nonnull align 4 dereferenceable(5) %0)
  br label %_ZN12_GLOBAL__N_111DumpVisitor23printWithPendingNewlineIPKNS_16itanium_demangle4NodeEEEvT_.exit

25:                                               ; preds = %_ZNK12_GLOBAL__N_116itanium_demangle8QualType5matchINS_11DumpVisitor14CtorArgPrinterEEEvT_.exit
  %26 = load ptr, ptr @stderr, align 8, !tbaa !11
  %27 = tail call i64 @fwrite(ptr nonnull @.str.13, i64 6, i64 1, ptr %26) #37
  br label %_ZN12_GLOBAL__N_111DumpVisitor23printWithPendingNewlineIPKNS_16itanium_demangle4NodeEEEvT_.exit

_ZN12_GLOBAL__N_111DumpVisitor23printWithPendingNewlineIPKNS_16itanium_demangle4NodeEEEvT_.exit: ; preds = %24, %25
  %28 = getelementptr inbounds nuw i8, ptr %0, i64 4
  store i8 1, ptr %28, align 4, !tbaa !10
  tail call fastcc void @_ZN12_GLOBAL__N_111DumpVisitor14printWithCommaINS_16itanium_demangle10QualifiersEEEvT_(ptr noundef nonnull align 4 dereferenceable(5) %0, i32 noundef %12)
  %29 = load ptr, ptr @stderr, align 8, !tbaa !11
  %fputc.i = tail call i32 @fputc(i32 41, ptr %29)
  %30 = load i32, ptr %0, align 4, !tbaa !4
  %31 = add i32 %30, -2
  store i32 %31, ptr %0, align 4, !tbaa !4
  ret void
}